target datalayout = "e-m:e-p270:32:32-p271:32:32-p272:64:64-i64:64-i128:128-f80:128-n8:16:32:64-S128"
target triple = "x86_64-pc-linux-gnu"

%struct.AVFormatContext = type { ptr, ptr, ptr, ptr, ptr, i32, i32, ptr, i32, ptr, i32, ptr, ptr, i64, i64, i64, i32, i32, i32, i64, i64, ptr, i32, i32, ptr, i32, i32, i32, i32, ptr, i64, i32, i32, %struct.AVIOInterruptCB, i32, i32, i32, i32, i64, i32, i32, i32, i32, i32, i32, i32, i32, i32, i32, i32, i32, i64, i32, i32, i32, i32, i32, ptr, ptr, ptr, ptr, i32, ptr, ptr, ptr, ptr, i32, ptr, ptr, i64, ptr, ptr, ptr, i64 }
%struct.AVIOInterruptCB = type { ptr, ptr }
%struct.Wc3DemuxContext = type { i32, i32, i64, i32, i32, ptr }
%struct.AVPacket = type { ptr, i64, i64, ptr, i32, i32, i32, ptr, i32, i64, i64, ptr, ptr, %struct.AVRational }
%struct.AVRational = type { i32, i32 }

@.str.3 = private unnamed_addr constant [28 x i8] c"unrecognized WC3 chunk: %s\0A\00", align 1
@.str.4 = private unnamed_addr constant [16 x i8] c"Subtitle time!\0A\00", align 1
@.str.5 = private unnamed_addr constant [15 x i8] c"  inglish: %s\0A\00", align 1
@.str.6 = private unnamed_addr constant [15 x i8] c"  doytsch: %s\0A\00", align 1
@.str.7 = private unnamed_addr constant [15 x i8] c"  fronsay: %s\0A\00", align 1

; Function Attrs: inlinehint nounwind uwtable
define internal i64 @av_strnlen(ptr noundef %0, i64 noundef %1) #5 {
  %3 = alloca ptr, align 8
  %4 = alloca i64, align 8
  %5 = alloca i64, align 8
  store ptr %0, ptr %3, align 8, !tbaa !45
  store i64 %1, ptr %4, align 8, !tbaa !80
  call void @llvm.lifetime.start.p0(i64 8, ptr %5) #6
  store i64 0, ptr %5, align 8, !tbaa !80
  br label %6

6:                                                ; preds = %20, %2
  %7 = load i64, ptr %5, align 8, !tbaa !80
  %8 = load i64, ptr %4, align 8, !tbaa !80
  %9 = icmp ult i64 %7, %8
  br i1 %9, label %10, label %17

10:                                               ; preds = %6
  %11 = load ptr, ptr %3, align 8, !tbaa !45
  %12 = load i64, ptr %5, align 8, !tbaa !80
  %13 = getelementptr inbounds nuw i8, ptr %11, i64 %12
  %14 = load i8, ptr %13, align 1, !tbaa !14
  %15 = sext i8 %14 to i32
  %16 = icmp ne i32 %15, 0
  br label %17

17:                                               ; preds = %10, %6
  %18 = phi i1 [ false, %6 ], [ %16, %10 ]
  br i1 %18, label %19, label %23

19:                                               ; preds = %17
  br label %20

20:                                               ; preds = %19
  %21 = load i64, ptr %5, align 8, !tbaa !80
  %22 = add i64 %21, 1
  store i64 %22, ptr %5, align 8, !tbaa !80
  br label %6, !llvm.loop !81

23:                                               ; preds = %17
  %24 = load i64, ptr %5, align 8, !tbaa !80
  call void @llvm.lifetime.end.p0(i64 8, ptr %5) #6
  ret i64 %24
}

; Function Attrs: nounwind uwtable
define internal i32 @wc3_read_packet(ptr noundef %0, ptr noundef %1) #0 {
  %3 = alloca i32, align 4
  %4 = alloca ptr, align 8
  %5 = alloca ptr, align 8
  %6 = alloca ptr, align 8
  %7 = alloca ptr, align 8
  %8 = alloca i32, align 4
  %9 = alloca i32, align 4
  %10 = alloca i32, align 4
  %11 = alloca i32, align 4
  %12 = alloca [1024 x i8], align 16
  %13 = alloca i32, align 4
  %14 = alloca i32, align 4
  %15 = alloca [32 x i8], align 1
  store ptr %0, ptr %4, align 8, !tbaa !15
  store ptr %1, ptr %5, align 8, !tbaa !75
  call void @llvm.lifetime.start.p0(i64 8, ptr %6) #6
  %16 = load ptr, ptr %4, align 8, !tbaa !15
  %17 = getelementptr inbounds nuw %struct.AVFormatContext, ptr %16, i32 0, i32 3
  %18 = load ptr, ptr %17, align 8, !tbaa !17
  store ptr %18, ptr %6, align 8, !tbaa !32
  call void @llvm.lifetime.start.p0(i64 8, ptr %7) #6
  %19 = load ptr, ptr %4, align 8, !tbaa !15
  %20 = getelementptr inbounds nuw %struct.AVFormatContext, ptr %19, i32 0, i32 4
  %21 = load ptr, ptr %20, align 8, !tbaa !34
  store ptr %21, ptr %7, align 8, !tbaa !35
  call void @llvm.lifetime.start.p0(i64 4, ptr %8) #6
  call void @llvm.lifetime.start.p0(i64 4, ptr %9) #6
  call void @llvm.lifetime.start.p0(i64 4, ptr %10) #6
  store i32 0, ptr %10, align 4, !tbaa !36
  call void @llvm.lifetime.start.p0(i64 4, ptr %11) #6
  store i32 0, ptr %11, align 4, !tbaa !36
  call void @llvm.lifetime.start.p0(i64 1024, ptr %12) #6
  br label %22

22:                                               ; preds = %218, %2
  %23 = load i32, ptr %10, align 4, !tbaa !36
  %24 = icmp ne i32 %23, 0
  %25 = xor i1 %24, true
  br i1 %25, label %26, label %219

26:                                               ; preds = %22
  %27 = load ptr, ptr %7, align 8, !tbaa !35
  %28 = call i32 @avio_rl32(ptr noundef %27)
  store i32 %28, ptr %8, align 4, !tbaa !36
  %29 = load ptr, ptr %7, align 8, !tbaa !35
  %30 = call i32 @avio_rb32(ptr noundef %29)
  %31 = add i32 %30, 1
  %32 = and i32 %31, -2
  store i32 %32, ptr %9, align 4, !tbaa !36
  %33 = load ptr, ptr %7, align 8, !tbaa !35
  %34 = call i32 @avio_feof(ptr noundef %33)
  %35 = icmp ne i32 %34, 0
  br i1 %35, label %36, label %37

36:                                               ; preds = %26
  store i32 -5, ptr %3, align 4
  store i32 1, ptr %13, align 4
  br label %221

37:                                               ; preds = %26
  %38 = load i32, ptr %8, align 4, !tbaa !36
  switch i32 %38, label %213 [
    i32 1212371522, label %218
    i32 1414482003, label %39
    i32 541149014, label %47
    i32 1415071060, label %79
    i32 1229215041, label %194
  ]

39:                                               ; preds = %37
  %40 = load ptr, ptr %7, align 8, !tbaa !35
  %41 = call i64 @avio_seek(ptr noundef %40, i64 noundef -8, i32 noundef 1)
  %42 = load ptr, ptr %7, align 8, !tbaa !35
  %43 = load ptr, ptr %6, align 8, !tbaa !32
  %44 = getelementptr inbounds nuw %struct.Wc3DemuxContext, ptr %43, i32 0, i32 5
  %45 = load ptr, ptr %44, align 8, !tbaa !44
  %46 = call i32 @av_append_packet(ptr noundef %42, ptr noundef %45, i32 noundef 12)
  br label %218

47:                                               ; preds = %37
  %48 = load ptr, ptr %7, align 8, !tbaa !35
  %49 = call i64 @avio_seek(ptr noundef %48, i64 noundef -8, i32 noundef 1)
  %50 = load ptr, ptr %7, align 8, !tbaa !35
  %51 = load ptr, ptr %6, align 8, !tbaa !32
  %52 = getelementptr inbounds nuw %struct.Wc3DemuxContext, ptr %51, i32 0, i32 5
  %53 = load ptr, ptr %52, align 8, !tbaa !44
  %54 = load i32, ptr %9, align 4, !tbaa !36
  %55 = add i32 8, %54
  %56 = call i32 @av_append_packet(ptr noundef %50, ptr noundef %53, i32 noundef %55)
  store i32 %56, ptr %11, align 4, !tbaa !36
  %57 = load ptr, ptr %6, align 8, !tbaa !32
  %58 = getelementptr inbounds nuw %struct.Wc3DemuxContext, ptr %57, i32 0, i32 5
  %59 = load ptr, ptr %58, align 8, !tbaa !44
  %60 = getelementptr inbounds nuw %struct.AVPacket, ptr %59, i32 0, i32 4
  %61 = load i32, ptr %60, align 8, !tbaa !76
  %62 = icmp sgt i32 %61, 0
  br i1 %62, label %63, label %64

63:                                               ; preds = %47
  store i32 0, ptr %11, align 4, !tbaa !36
  br label %64

64:                                               ; preds = %63, %47
  %65 = load ptr, ptr %5, align 8, !tbaa !75
  %66 = load ptr, ptr %6, align 8, !tbaa !32
  %67 = getelementptr inbounds nuw %struct.Wc3DemuxContext, ptr %66, i32 0, i32 5
  %68 = load ptr, ptr %67, align 8, !tbaa !44
  call void @av_packet_move_ref(ptr noundef %65, ptr noundef %68)
  %69 = load ptr, ptr %6, align 8, !tbaa !32
  %70 = getelementptr inbounds nuw %struct.Wc3DemuxContext, ptr %69, i32 0, i32 3
  %71 = load i32, ptr %70, align 8, !tbaa !43
  %72 = load ptr, ptr %5, align 8, !tbaa !75
  %73 = getelementptr inbounds nuw %struct.AVPacket, ptr %72, i32 0, i32 5
  store i32 %71, ptr %73, align 4, !tbaa !77
  %74 = load ptr, ptr %6, align 8, !tbaa !32
  %75 = getelementptr inbounds nuw %struct.Wc3DemuxContext, ptr %74, i32 0, i32 2
  %76 = load i64, ptr %75, align 8, !tbaa !41
  %77 = load ptr, ptr %5, align 8, !tbaa !75
  %78 = getelementptr inbounds nuw %struct.AVPacket, ptr %77, i32 0, i32 1
  store i64 %76, ptr %78, align 8, !tbaa !78
  store i32 1, ptr %10, align 4, !tbaa !36
  br label %218

79:                                               ; preds = %37
  %80 = load i32, ptr %9, align 4, !tbaa !36
  %81 = zext i32 %80 to i64
  %82 = icmp ugt i64 %81, 1024
  br i1 %82, label %90, label %83

83:                                               ; preds = %79
  %84 = load ptr, ptr %7, align 8, !tbaa !35
  %85 = getelementptr inbounds [1024 x i8], ptr %12, i64 0, i64 0
  %86 = load i32, ptr %9, align 4, !tbaa !36
  %87 = call i32 @avio_read(ptr noundef %84, ptr noundef %85, i32 noundef %86)
  store i32 %87, ptr %11, align 4, !tbaa !36
  %88 = load i32, ptr %9, align 4, !tbaa !36
  %89 = icmp ne i32 %87, %88
  br i1 %89, label %90, label %91

90:                                               ; preds = %83, %79
  store i32 -5, ptr %11, align 4, !tbaa !36
  br label %193

91:                                               ; preds = %83
  call void @llvm.lifetime.start.p0(i64 4, ptr %14) #6
  store i32 0, ptr %14, align 4, !tbaa !36
  %92 = load ptr, ptr %4, align 8, !tbaa !15
  call void (ptr, i32, ptr, ...) @av_log(ptr noundef %92, i32 noundef 48, ptr noundef @.str.4)
  %93 = load i32, ptr %14, align 4, !tbaa !36
  %94 = load i32, ptr %9, align 4, !tbaa !36
  %95 = icmp uge i32 %93, %94
  br i1 %95, label %113, label %96

96:                                               ; preds = %91
  %97 = load i32, ptr %14, align 4, !tbaa !36
  %98 = add nsw i32 %97, 1
  %99 = sext i32 %98 to i64
  %100 = getelementptr inbounds [1024 x i8], ptr %12, i64 0, i64 %99
  %101 = load i32, ptr %9, align 4, !tbaa !36
  %102 = load i32, ptr %14, align 4, !tbaa !36
  %103 = sub i32 %101, %102
  %104 = sub i32 %103, 1
  %105 = zext i32 %104 to i64
  %106 = call i64 @av_strnlen(ptr noundef %100, i64 noundef %105)
  %107 = load i32, ptr %9, align 4, !tbaa !36
  %108 = load i32, ptr %14, align 4, !tbaa !36
  %109 = sub i32 %107, %108
  %110 = sub i32 %109, 1
  %111 = zext i32 %110 to i64
  %112 = icmp uge i64 %106, %111
  br i1 %112, label %113, label %114

113:                                              ; preds = %96, %91
  store i32 -1094995529, ptr %3, align 4
  store i32 1, ptr %13, align 4
  br label %190

114:                                              ; preds = %96
  %115 = load ptr, ptr %4, align 8, !tbaa !15
  %116 = load i32, ptr %14, align 4, !tbaa !36
  %117 = add nsw i32 %116, 1
  %118 = sext i32 %117 to i64
  %119 = getelementptr inbounds [1024 x i8], ptr %12, i64 0, i64 %118
  call void (ptr, i32, ptr, ...) @av_log(ptr noundef %115, i32 noundef 48, ptr noundef @.str.5, ptr noundef %119)
  %120 = load i32, ptr %14, align 4, !tbaa !36
  %121 = sext i32 %120 to i64
  %122 = getelementptr inbounds [1024 x i8], ptr %12, i64 0, i64 %121
  %123 = load i8, ptr %122, align 1, !tbaa !14
  %124 = zext i8 %123 to i32
  %125 = add nsw i32 %124, 1
  %126 = load i32, ptr %14, align 4, !tbaa !36
  %127 = add nsw i32 %126, %125
  store i32 %127, ptr %14, align 4, !tbaa !36
  %128 = load i32, ptr %14, align 4, !tbaa !36
  %129 = load i32, ptr %9, align 4, !tbaa !36
  %130 = icmp uge i32 %128, %129
  br i1 %130, label %148, label %131

131:                                              ; preds = %114
  %132 = load i32, ptr %14, align 4, !tbaa !36
  %133 = add nsw i32 %132, 1
  %134 = sext i32 %133 to i64
  %135 = getelementptr inbounds [1024 x i8], ptr %12, i64 0, i64 %134
  %136 = load i32, ptr %9, align 4, !tbaa !36
  %137 = load i32, ptr %14, align 4, !tbaa !36
  %138 = sub i32 %136, %137
  %139 = sub i32 %138, 1
  %140 = zext i32 %139 to i64
  %141 = call i64 @av_strnlen(ptr noundef %135, i64 noundef %140)
  %142 = load i32, ptr %9, align 4, !tbaa !36
  %143 = load i32, ptr %14, align 4, !tbaa !36
  %144 = sub i32 %142, %143
  %145 = sub i32 %144, 1
  %146 = zext i32 %145 to i64
  %147 = icmp uge i64 %141, %146
  br i1 %147, label %148, label %149

148:                                              ; preds = %131, %114
  store i32 -1094995529, ptr %3, align 4
  store i32 1, ptr %13, align 4
  br label %190

149:                                              ; preds = %131
  %150 = load ptr, ptr %4, align 8, !tbaa !15
  %151 = load i32, ptr %14, align 4, !tbaa !36
  %152 = add nsw i32 %151, 1
  %153 = sext i32 %152 to i64
  %154 = getelementptr inbounds [1024 x i8], ptr %12, i64 0, i64 %153
  call void (ptr, i32, ptr, ...) @av_log(ptr noundef %150, i32 noundef 48, ptr noundef @.str.6, ptr noundef %154)
  %155 = load i32, ptr %14, align 4, !tbaa !36
  %156 = sext i32 %155 to i64
  %157 = getelementptr inbounds [1024 x i8], ptr %12, i64 0, i64 %156
  %158 = load i8, ptr %157, align 1, !tbaa !14
  %159 = zext i8 %158 to i32
  %160 = add nsw i32 %159, 1
  %161 = load i32, ptr %14, align 4, !tbaa !36
  %162 = add nsw i32 %161, %160
  store i32 %162, ptr %14, align 4, !tbaa !36
  %163 = load i32, ptr %14, align 4, !tbaa !36
  %164 = load i32, ptr %9, align 4, !tbaa !36
  %165 = icmp uge i32 %163, %164
  br i1 %165, label %183, label %166

166:                                              ; preds = %149
  %167 = load i32, ptr %14, align 4, !tbaa !36
  %168 = add nsw i32 %167, 1
  %169 = sext i32 %168 to i64
  %170 = getelementptr inbounds [1024 x i8], ptr %12, i64 0, i64 %169
  %171 = load i32, ptr %9, align 4, !tbaa !36
  %172 = load i32, ptr %14, align 4, !tbaa !36
  %173 = sub i32 %171, %172
  %174 = sub i32 %173, 1
  %175 = zext i32 %174 to i64
  %176 = call i64 @av_strnlen(ptr noundef %170, i64 noundef %175)
  %177 = load i32, ptr %9, align 4, !tbaa !36
  %178 = load i32, ptr %14, align 4, !tbaa !36
  %179 = sub i32 %177, %178
  %180 = sub i32 %179, 1
  %181 = zext i32 %180 to i64
  %182 = icmp uge i64 %176, %181
  br i1 %182, label %183, label %184

183:                                              ; preds = %166, %149
  store i32 -1094995529, ptr %3, align 4
  store i32 1, ptr %13, align 4
  br label %190

184:                                              ; preds = %166
  %185 = load ptr, ptr %4, align 8, !tbaa !15
  %186 = load i32, ptr %14, align 4, !tbaa !36
  %187 = add nsw i32 %186, 1
  %188 = sext i32 %187 to i64
  %189 = getelementptr inbounds [1024 x i8], ptr %12, i64 0, i64 %188
  call void (ptr, i32, ptr, ...) @av_log(ptr noundef %185, i32 noundef 48, ptr noundef @.str.7, ptr noundef %189)
  store i32 0, ptr %13, align 4
  br label %190

190:                                              ; preds = %184, %183, %148, %113
  call void @llvm.lifetime.end.p0(i64 4, ptr %14) #6
  %191 = load i32, ptr %13, align 4
  switch i32 %191, label %221 [
    i32 0, label %192
  ]

192:                                              ; preds = %190
  br label %193

193:                                              ; preds = %192, %90
  br label %218

194:                                              ; preds = %37
  %195 = load ptr, ptr %7, align 8, !tbaa !35
  %196 = load ptr, ptr %5, align 8, !tbaa !75
  %197 = load i32, ptr %9, align 4, !tbaa !36
  %198 = call i32 @av_get_packet(ptr noundef %195, ptr noundef %196, i32 noundef %197)
  store i32 %198, ptr %11, align 4, !tbaa !36
  %199 = load ptr, ptr %6, align 8, !tbaa !32
  %200 = getelementptr inbounds nuw %struct.Wc3DemuxContext, ptr %199, i32 0, i32 4
  %201 = load i32, ptr %200, align 4, !tbaa !42
  %202 = load ptr, ptr %5, align 8, !tbaa !75
  %203 = getelementptr inbounds nuw %struct.AVPacket, ptr %202, i32 0, i32 5
  store i32 %201, ptr %203, align 4, !tbaa !77
  %204 = load ptr, ptr %6, align 8, !tbaa !32
  %205 = getelementptr inbounds nuw %struct.Wc3DemuxContext, ptr %204, i32 0, i32 2
  %206 = load i64, ptr %205, align 8, !tbaa !41
  %207 = load ptr, ptr %5, align 8, !tbaa !75
  %208 = getelementptr inbounds nuw %struct.AVPacket, ptr %207, i32 0, i32 1
  store i64 %206, ptr %208, align 8, !tbaa !78
  %209 = load ptr, ptr %6, align 8, !tbaa !32
  %210 = getelementptr inbounds nuw %struct.Wc3DemuxContext, ptr %209, i32 0, i32 2
  %211 = load i64, ptr %210, align 8, !tbaa !41
  %212 = add nsw i64 %211, 1
  store i64 %212, ptr %210, align 8, !tbaa !41
  store i32 1, ptr %10, align 4, !tbaa !36
  br label %218

213:                                              ; preds = %37
  %214 = load ptr, ptr %4, align 8, !tbaa !15
  call void @llvm.memset.p0.i64(ptr align 1 %15, i8 0, i64 32, i1 false)
  %215 = getelementptr inbounds [32 x i8], ptr %15, i64 0, i64 0
  %216 = load i32, ptr %8, align 4, !tbaa !36
  %217 = call ptr @av_fourcc_make_string(ptr noundef %215, i32 noundef %216)
  call void (ptr, i32, ptr, ...) @av_log(ptr noundef %214, i32 noundef 16, ptr noundef @.str.3, ptr noundef %217)
  store i32 -1094995529, ptr %11, align 4, !tbaa !36
  store i32 1, ptr %10, align 4, !tbaa !36
  br label %218

218:                                              ; preds = %213, %194, %193, %64, %39, %37
  br label %22, !llvm.loop !79

219:                                              ; preds = %22
  %220 = load i32, ptr %11, align 4, !tbaa !36
  store i32 %220, ptr %3, align 4
  store i32 1, ptr %13, align 4
  br label %221

221:                                              ; preds = %219, %190, %36
  call void @llvm.lifetime.end.p0(i64 1024, ptr %12) #6
  call void @llvm.lifetime.end.p0(i64 4, ptr %11) #6
  call void @llvm.lifetime.end.p0(i64 4, ptr %10) #6
  call void @llvm.lifetime.end.p0(i64 4, ptr %9) #6
  call void @llvm.lifetime.end.p0(i64 4, ptr %8) #6
  call void @llvm.lifetime.end.p0(i64 8, ptr %7) #6
  call void @llvm.lifetime.end.p0(i64 8, ptr %6) #6
  %222 = load i32, ptr %3, align 4
  ret i32 %222
}