; Function Attrs: nounwind uwtable
define internal i32 @wc3_read_packet(ptr noundef %0, ptr noundef %1) #1 {
  %3 = alloca [1024 x i8], align 16
  %4 = alloca [32 x i8], align 1
  %5 = getelementptr inbounds nuw i8, ptr %0, i64 24
  %6 = load ptr, ptr %5, align 8, !tbaa !13
  %7 = getelementptr inbounds nuw i8, ptr %0, i64 32
  %8 = load ptr, ptr %7, align 8, !tbaa !28
  call void @llvm.lifetime.start.p0(i64 1024, ptr nonnull %3) #5
  %9 = getelementptr inbounds nuw i8, ptr %6, i64 20
  %10 = getelementptr inbounds nuw i8, ptr %1, i64 36
  %11 = getelementptr inbounds nuw i8, ptr %6, i64 8
  %12 = getelementptr inbounds nuw i8, ptr %1, i64 8
  %13 = getelementptr inbounds nuw i8, ptr %3, i64 1
  %14 = getelementptr inbounds nuw i8, ptr %6, i64 24
  %15 = getelementptr inbounds nuw i8, ptr %6, i64 16
  %16 = tail call i32 @avio_rl32(ptr noundef %8) #5
  %17 = tail call i32 @avio_rb32(ptr noundef %8) #5
  %18 = tail call i32 @avio_feof(ptr noundef %8) #5
  %.not78158 = icmp eq i32 %18, 0
  br i1 %.not78158, label %.lr.ph, label %av_strnlen.exit.thread

.lr.ph:                                           ; preds = %2, %87
  %.in.in = phi i32 [ %89, %87 ], [ %17, %2 ]
  %19 = phi i32 [ %88, %87 ], [ %16, %2 ]
  %.in = add i32 %.in.in, 1
  %20 = and i32 %.in, -2
  switch i32 %19, label %85 [
    i32 1212371522, label %87
    i32 1414482003, label %21
    i32 541149014, label %25
    i32 1415071060, label %36
    i32 1229215041, label %80
  ]

21:                                               ; preds = %.lr.ph
  %22 = call i64 @avio_seek(ptr noundef %8, i64 noundef -8, i32 noundef 1) #5
  %23 = load ptr, ptr %14, align 8, !tbaa !33
  %24 = call i32 @av_append_packet(ptr noundef %8, ptr noundef %23, i32 noundef 12) #5
  br label %87

25:                                               ; preds = %.lr.ph
  %26 = call i64 @avio_seek(ptr noundef %8, i64 noundef -8, i32 noundef 1) #5
  %27 = load ptr, ptr %14, align 8, !tbaa !33
  %28 = add i32 %20, 8
  %29 = call i32 @av_append_packet(ptr noundef %8, ptr noundef %27, i32 noundef %28) #5
  %30 = load ptr, ptr %14, align 8, !tbaa !33
  %31 = getelementptr inbounds nuw i8, ptr %30, i64 32
  %32 = load i32, ptr %31, align 8, !tbaa !60
  %33 = icmp sgt i32 %32, 0
  %spec.store.select = select i1 %33, i32 0, i32 %29
  call void @av_packet_move_ref(ptr noundef %1, ptr noundef %30) #5
  %34 = load i32, ptr %15, align 8, !tbaa !43
  store i32 %34, ptr %10, align 4, !tbaa !61
  %35 = load i64, ptr %11, align 8, !tbaa !62
  store i64 %35, ptr %12, align 8, !tbaa !63
  br label %av_strnlen.exit.thread

36:                                               ; preds = %.lr.ph
  %37 = icmp ugt i32 %20, 1024
  br i1 %37, label %87, label %38

38:                                               ; preds = %36
  %39 = call i32 @avio_read(ptr noundef %8, ptr noundef nonnull %3, i32 noundef %20) #5
  %.not79 = icmp eq i32 %39, %20
  br i1 %.not79, label %40, label %87

40:                                               ; preds = %38
  call void (ptr, i32, ptr, ...) @av_log(ptr noundef %0, i32 noundef 48, ptr noundef nonnull @.str.4) #5
  %41 = icmp eq i32 %20, 0
  br i1 %41, label %av_strnlen.exit.thread, label %42

42:                                               ; preds = %40
  %43 = add nsw i32 %20, -1
  %44 = zext nneg i32 %43 to i64
  br label %.lr.ph.i

.lr.ph.i:                                         ; preds = %42, %47
  %.05.i = phi i64 [ %48, %47 ], [ 0, %42 ]
  %45 = getelementptr inbounds nuw i8, ptr %13, i64 %.05.i
  %46 = load i8, ptr %45, align 1, !tbaa !12
  %.not.i = icmp eq i8 %46, 0
  br i1 %.not.i, label %av_strnlen.exit, label %47

47:                                               ; preds = %.lr.ph.i
  %48 = add nuw nsw i64 %.05.i, 1
  %exitcond.not.i = icmp eq i64 %48, %44
  br i1 %exitcond.not.i, label %av_strnlen.exit.thread, label %.lr.ph.i, !llvm.loop !64

av_strnlen.exit:                                  ; preds = %.lr.ph.i
  %.not80 = icmp samesign ult i64 %.05.i, %44
  br i1 %.not80, label %49, label %av_strnlen.exit.thread

49:                                               ; preds = %av_strnlen.exit
  call void (ptr, i32, ptr, ...) @av_log(ptr noundef %0, i32 noundef 48, ptr noundef nonnull @.str.5, ptr noundef nonnull %13) #5
  %50 = load i8, ptr %3, align 16, !tbaa !12
  %51 = zext i8 %50 to i32
  %52 = add nuw nsw i32 %51, 1
  %.not81 = icmp ult i32 %52, %20
  br i1 %.not81, label %53, label %av_strnlen.exit.thread

53:                                               ; preds = %49
  %54 = add nuw nsw i32 %51, 2
  %55 = zext nneg i32 %54 to i64
  %56 = getelementptr inbounds nuw [1024 x i8], ptr %3, i64 0, i64 %55
  %reass.sub = sub nsw i32 %20, %51
  %57 = add nsw i32 %reass.sub, -2
  %58 = zext i32 %57 to i64
  %.not8.i = icmp eq i32 %57, 0
  br i1 %.not8.i, label %av_strnlen.exit90, label %.lr.ph.i85

.lr.ph.i85:                                       ; preds = %53, %61
  %.05.i86 = phi i64 [ %62, %61 ], [ 0, %53 ]
  %59 = getelementptr inbounds nuw i8, ptr %56, i64 %.05.i86
  %60 = load i8, ptr %59, align 1, !tbaa !12
  %.not.i87 = icmp eq i8 %60, 0
  br i1 %.not.i87, label %av_strnlen.exit90, label %61

61:                                               ; preds = %.lr.ph.i85
  %62 = add nuw nsw i64 %.05.i86, 1
  %exitcond.not.i88 = icmp eq i64 %62, %58
  br i1 %exitcond.not.i88, label %av_strnlen.exit.thread, label %.lr.ph.i85, !llvm.loop !64

av_strnlen.exit90:                                ; preds = %.lr.ph.i85, %53
  %.0.lcssa.i89 = phi i64 [ 0, %53 ], [ %.05.i86, %.lr.ph.i85 ]
  %.not82 = icmp samesign ult i64 %.0.lcssa.i89, %58
  br i1 %.not82, label %63, label %av_strnlen.exit.thread

63:                                               ; preds = %av_strnlen.exit90
  call void (ptr, i32, ptr, ...) @av_log(ptr noundef %0, i32 noundef 48, ptr noundef nonnull @.str.6, ptr noundef nonnull %56) #5
  %64 = zext nneg i32 %52 to i64
  %65 = getelementptr inbounds nuw [1024 x i8], ptr %3, i64 0, i64 %64
  %66 = load i8, ptr %65, align 1, !tbaa !12
  %67 = zext i8 %66 to i32
  %68 = add nuw nsw i32 %54, %67
  %.not83 = icmp ult i32 %68, %20
  br i1 %.not83, label %69, label %av_strnlen.exit.thread

69:                                               ; preds = %63
  %70 = add nuw nsw i32 %68, 1
  %71 = zext nneg i32 %70 to i64
  %72 = getelementptr inbounds nuw [1024 x i8], ptr %3, i64 0, i64 %71
  %73 = xor i32 %68, -1
  %74 = add nsw i32 %20, %73
  %75 = zext i32 %74 to i64
  %.not8.i91 = icmp eq i32 %74, 0
  br i1 %.not8.i91, label %av_strnlen.exit97, label %.lr.ph.i92

.lr.ph.i92:                                       ; preds = %69, %78
  %.05.i93 = phi i64 [ %79, %78 ], [ 0, %69 ]
  %76 = getelementptr inbounds nuw i8, ptr %72, i64 %.05.i93
  %77 = load i8, ptr %76, align 1, !tbaa !12
  %.not.i94 = icmp eq i8 %77, 0
  br i1 %.not.i94, label %av_strnlen.exit97, label %78

78:                                               ; preds = %.lr.ph.i92
  %79 = add nuw nsw i64 %.05.i93, 1
  %exitcond.not.i95 = icmp eq i64 %79, %75
  br i1 %exitcond.not.i95, label %av_strnlen.exit.thread, label %.lr.ph.i92, !llvm.loop !64

av_strnlen.exit97:                                ; preds = %.lr.ph.i92, %69
  %.0.lcssa.i96 = phi i64 [ 0, %69 ], [ %.05.i93, %.lr.ph.i92 ]
  %.not84 = icmp samesign ult i64 %.0.lcssa.i96, %75
  br i1 %.not84, label %.critedge, label %av_strnlen.exit.thread

.critedge:                                        ; preds = %av_strnlen.exit97
  call void (ptr, i32, ptr, ...) @av_log(ptr noundef %0, i32 noundef 48, ptr noundef nonnull @.str.7, ptr noundef nonnull %72) #5
  br label %87

80:                                               ; preds = %.lr.ph
  %81 = call i32 @av_get_packet(ptr noundef %8, ptr noundef %1, i32 noundef %20) #5
  %82 = load i32, ptr %9, align 4, !tbaa !52
  store i32 %82, ptr %10, align 4, !tbaa !61
  %83 = load i64, ptr %11, align 8, !tbaa !62
  store i64 %83, ptr %12, align 8, !tbaa !63
  %84 = add nsw i64 %83, 1
  store i64 %84, ptr %11, align 8, !tbaa !62
  br label %av_strnlen.exit.thread

85:                                               ; preds = %.lr.ph
  call void @llvm.memset.p0.i64(ptr noundef nonnull align 1 dereferenceable(32) %4, i8 0, i64 32, i1 false)
  %86 = call ptr @av_fourcc_make_string(ptr noundef nonnull %4, i32 noundef %19) #5
  call void (ptr, i32, ptr, ...) @av_log(ptr noundef %0, i32 noundef 16, ptr noundef nonnull @.str.3, ptr noundef %86) #5
  br label %av_strnlen.exit.thread

87:                                               ; preds = %.critedge, %36, %38, %21, %.lr.ph
  %88 = call i32 @avio_rl32(ptr noundef %8) #5
  %89 = call i32 @avio_rb32(ptr noundef %8) #5
  %90 = call i32 @avio_feof(ptr noundef %8) #5
  %.not78 = icmp eq i32 %90, 0
  br i1 %.not78, label %.lr.ph, label %av_strnlen.exit.thread, !llvm.loop !65

av_strnlen.exit.thread:                           ; preds = %87, %63, %av_strnlen.exit97, %49, %av_strnlen.exit90, %40, %av_strnlen.exit, %47, %61, %78, %2, %25, %80, %85
  %.173 = phi i32 [ %spec.store.select, %25 ], [ %81, %80 ], [ -1094995529, %85 ], [ -5, %2 ], [ -1094995529, %78 ], [ -1094995529, %61 ], [ -1094995529, %47 ], [ -1094995529, %av_strnlen.exit ], [ -1094995529, %40 ], [ -1094995529, %av_strnlen.exit90 ], [ -1094995529, %49 ], [ -1094995529, %av_strnlen.exit97 ], [ -1094995529, %63 ], [ -5, %87 ]
  call void @llvm.lifetime.end.p0(i64 1024, ptr nonnull %3) #5
  ret i32 %.173
}